target datalayout = "e-m:e-p270:32:32-p271:32:32-p272:64:64-i64:64-i128:128-f80:128-n8:16:32:64-S128"
target triple = "x86_64-pc-linux-gnu"

%struct.LLVMIntrinsics = type { i32, i32, i32, i32, i32, i32, i32, i32, i32, i32, i32, i32, i32, i32, i32, i32, i32, i32, i32, i32, i32, i32, i32, i32, i32, i32, i32, i32, i32, i32, i32, i32, i32, i32, i32, i32, i32, i32, i32, i32, i32, i32, i32, i32, i32, i32, i32, i32, i32, i32, i32, i32, i32, i32, i32, i32, i32, i32, i32, i32, i32, i32, i32, i32, i32, i32, i32, i32, i32, i32, i32, i32, i32, i32, i32, i32, i32, i32, i32, i32, i32, i32, i32, i32, i32, i32, i32, i32, i32, i32, i32, i32, i32, i32 }
%struct.BEValue = type { i8, i32, ptr, ptr, ptr }
%struct.Expr_ = type { ptr, %union.SourceSpan, i16, %union.anon.29 }
%union.SourceSpan = type { i64 }
%union.anon.29 = type { %struct.ExprAnySwitch }
%struct.ExprAnySwitch = type { i8, %union.anon.31 }
%union.anon.31 = type { %struct.anon.32 }
%struct.anon.32 = type { ptr, %union.SourceSpan, ptr }
%struct.ExprCall = type { %union.anon.33, i32, i16, ptr, %union.anon.34 }
%union.anon.33 = type { i32 }
%union.anon.34 = type { ptr }
%struct.Type_ = type { i32, ptr, ptr, ptr, %union.anon.101, ptr, ptr, %union.anon.103 }
%union.anon.101 = type { ptr }
%union.anon.103 = type { %struct.TypeFunction }
%struct.TypeFunction = type { ptr, ptr, ptr }
%struct.ExprConst = type { i16, %union.anon.38 }
%union.anon.38 = type { %struct.Int }
%struct.Int = type { %struct.Int128_, i32 }
%struct.Int128_ = type { i64, i64 }

@intrinsic_id = external global %struct.LLVMIntrinsics, align 4
@type_uint = external global ptr, align 8

; Function Attrs: nounwind uwtable
define internal void @llvm_emit_gather(ptr noundef %0, ptr noundef %1, ptr noundef %2) #0 {
  %4 = alloca ptr, align 8
  %5 = alloca i32, align 4
  %6 = alloca ptr, align 8
  %7 = alloca ptr, align 8
  %8 = alloca i64, align 8
  %9 = alloca ptr, align 8
  %10 = alloca ptr, align 8
  %11 = alloca ptr, align 8
  %12 = alloca i32, align 4
  %13 = alloca %struct.BEValue, align 8
  %14 = alloca i32, align 4
  %15 = alloca ptr, align 8
  %16 = alloca ptr, align 8
  %17 = alloca ptr, align 8
  %18 = alloca ptr, align 8
  %19 = alloca [4 x ptr], align 16
  %20 = alloca ptr, align 8
  %21 = alloca ptr, align 8
  %22 = alloca i64, align 8
  %23 = alloca [2 x ptr], align 16
  %24 = alloca ptr, align 8
  store ptr %0, ptr %15, align 8
  store ptr %1, ptr %16, align 8
  store ptr %2, ptr %17, align 8
  %25 = load ptr, ptr %17, align 8
  %26 = getelementptr inbounds %struct.Expr_, ptr %25, i32 0, i32 3
  %27 = getelementptr inbounds %struct.ExprCall, ptr %26, i32 0, i32 3
  %28 = load ptr, ptr %27, align 8
  store ptr %28, ptr %18, align 8
  %29 = load ptr, ptr %15, align 8
  %30 = load ptr, ptr %18, align 8
  %31 = getelementptr inbounds [4 x ptr], ptr %19, i64 0, i64 0
  store ptr %29, ptr %9, align 8
  store ptr %30, ptr %10, align 8
  store ptr %31, ptr %11, align 8
  store i32 3, ptr %12, align 4
  store i32 0, ptr %14, align 4
  br label %32

32:                                               ; preds = %36, %3
  %33 = load i32, ptr %14, align 4
  %34 = load i32, ptr %12, align 4
  %35 = icmp ult i32 %33, %34
  br i1 %35, label %36, label %52

36:                                               ; preds = %32
  %37 = load ptr, ptr %9, align 8
  %38 = load ptr, ptr %10, align 8
  %39 = load i32, ptr %14, align 4
  %40 = zext i32 %39 to i64
  %41 = getelementptr inbounds ptr, ptr %38, i64 %40
  %42 = load ptr, ptr %41, align 8
  call void @llvm_emit_expr(ptr noundef %37, ptr noundef %13, ptr noundef %42) #6
  %43 = load ptr, ptr %9, align 8
  call void @llvm_value_rvalue(ptr noundef %43, ptr noundef %13) #6
  %44 = getelementptr inbounds %struct.BEValue, ptr %13, i32 0, i32 3
  %45 = load ptr, ptr %44, align 8
  %46 = load ptr, ptr %11, align 8
  %47 = load i32, ptr %14, align 4
  %48 = zext i32 %47 to i64
  %49 = getelementptr inbounds ptr, ptr %46, i64 %48
  store ptr %45, ptr %49, align 8
  %50 = load i32, ptr %14, align 4
  %51 = add i32 %50, 1
  store i32 %51, ptr %14, align 4
  br label %32, !llvm.loop !31

52:                                               ; preds = %32
  %53 = getelementptr inbounds [4 x ptr], ptr %19, i64 0, i64 2
  %54 = load ptr, ptr %53, align 16
  store ptr %54, ptr %20, align 8
  %55 = getelementptr inbounds [4 x ptr], ptr %19, i64 0, i64 1
  %56 = load ptr, ptr %55, align 8
  store ptr %56, ptr %21, align 8
  %57 = load ptr, ptr %18, align 8
  %58 = getelementptr inbounds ptr, ptr %57, i64 3
  %59 = load ptr, ptr %58, align 8
  %60 = getelementptr inbounds %struct.Expr_, ptr %59, i32 0, i32 3
  %61 = getelementptr inbounds %struct.ExprConst, ptr %60, i32 0, i32 1
  %62 = getelementptr inbounds %struct.Int, ptr %61, i32 0, i32 0
  %63 = getelementptr inbounds %struct.Int128_, ptr %62, i32 0, i32 1
  %64 = load i64, ptr %63, align 8
  store i64 %64, ptr %22, align 8
  %65 = getelementptr inbounds [2 x ptr], ptr %23, i64 0, i64 0
  %66 = load ptr, ptr %20, align 8
  %67 = call ptr @LLVMTypeOf(ptr noundef %66)
  store ptr %67, ptr %65, align 8
  %68 = getelementptr inbounds ptr, ptr %65, i64 1
  %69 = getelementptr inbounds [4 x ptr], ptr %19, i64 0, i64 0
  %70 = load ptr, ptr %69, align 16
  %71 = call ptr @LLVMTypeOf(ptr noundef %70)
  store ptr %71, ptr %68, align 8
  %72 = load ptr, ptr %15, align 8
  %73 = load ptr, ptr @type_uint, align 8
  %74 = load i64, ptr %22, align 8
  %75 = icmp ne i64 %74, 0
  br i1 %75, label %76, label %78

76:                                               ; preds = %52
  %77 = load i64, ptr %22, align 8
  br label %85

78:                                               ; preds = %52
  %79 = load ptr, ptr %15, align 8
  %80 = getelementptr inbounds [2 x ptr], ptr %23, i64 0, i64 0
  %81 = load ptr, ptr %80, align 16
  %82 = call ptr @LLVMGetElementType(ptr noundef %81)
  %83 = call i32 @llvm_abi_alignment(ptr noundef %79, ptr noundef %82)
  %84 = zext i32 %83 to i64
  br label %85

85:                                               ; preds = %78, %76
  %86 = phi i64 [ %77, %76 ], [ %84, %78 ]
  store ptr %72, ptr %6, align 8
  store ptr %73, ptr %7, align 8
  store i64 %86, ptr %8, align 8
  %87 = load ptr, ptr %7, align 8
  %88 = call ptr @type_lowering(ptr noundef %87)
  store ptr %88, ptr %7, align 8
  %89 = load ptr, ptr %6, align 8
  %90 = load ptr, ptr %7, align 8
  %91 = call ptr @llvm_get_type(ptr noundef %89, ptr noundef %90) #6
  %92 = load i64, ptr %8, align 8
  %93 = load ptr, ptr %7, align 8
  store ptr %93, ptr %4, align 8
  %94 = load ptr, ptr %4, align 8
  %95 = load i32, ptr %94, align 8
  store i32 %95, ptr %5, align 4
  %96 = load i32, ptr %5, align 4
  %97 = icmp eq i32 %96, 31
  br i1 %97, label %98, label %103

98:                                               ; preds = %85
  %99 = load ptr, ptr %4, align 8
  %100 = getelementptr inbounds %struct.Type_, ptr %99, i32 0, i32 1
  %101 = load ptr, ptr %100, align 8
  %102 = load i32, ptr %101, align 8
  store i32 %102, ptr %5, align 4
  br label %103

103:                                              ; preds = %98, %85
  %104 = load i32, ptr %5, align 4
  %105 = icmp uge i32 %104, 3
  br i1 %105, label %106, label %109

106:                                              ; preds = %103
  %107 = load i32, ptr %5, align 4
  %108 = icmp ule i32 %107, 7
  br label %109

109:                                              ; preds = %106, %103
  %110 = phi i1 [ false, %103 ], [ %108, %106 ]
  %111 = zext i1 %110 to i32
  %112 = call ptr @LLVMConstInt(ptr noundef %91, i64 noundef %92, i32 noundef %111) #6
  %113 = getelementptr inbounds [4 x ptr], ptr %19, i64 0, i64 1
  store ptr %112, ptr %113, align 8
  %114 = load ptr, ptr %21, align 8
  %115 = getelementptr inbounds [4 x ptr], ptr %19, i64 0, i64 2
  store ptr %114, ptr %115, align 16
  %116 = load ptr, ptr %20, align 8
  %117 = getelementptr inbounds [4 x ptr], ptr %19, i64 0, i64 3
  store ptr %116, ptr %117, align 8
  %118 = load ptr, ptr %15, align 8
  %119 = load i32, ptr getelementptr inbounds (%struct.LLVMIntrinsics, ptr @intrinsic_id, i32 0, i32 23), align 4
  %120 = getelementptr inbounds [2 x ptr], ptr %23, i64 0, i64 0
  %121 = getelementptr inbounds [4 x ptr], ptr %19, i64 0, i64 0
  %122 = call ptr @llvm_emit_call_intrinsic(ptr noundef %118, i32 noundef %119, ptr noundef %120, i32 noundef 2, ptr noundef %121, i32 noundef 4)
  store ptr %122, ptr %24, align 8
  %123 = load ptr, ptr %16, align 8
  %124 = load ptr, ptr %24, align 8
  %125 = load ptr, ptr %17, align 8
  %126 = getelementptr inbounds %struct.Expr_, ptr %125, i32 0, i32 0
  %127 = load ptr, ptr %126, align 8
  call void @llvm_value_set(ptr noundef %123, ptr noundef %124, ptr noundef %127)
  ret void
}